Certificate:
    Data:
        Version: 1 (0x0)
        Serial Number: 2 (0x2)
        Signature Algorithm: md5WithRSAEncryption
        Issuer: O=ACME Corp., OU=Inner Circle/emailAddress=cprops-general@lists.sourceforge.net, L=HQ, ACME Corp., ST=Delaware, C=US, CN=localhost
        Validity
            Not Before: Mar  9 00:38:05 2006 GMT
            Not After : Mar  9 00:38:05 2007 GMT
        Subject: C=US, ST=Delaware, O=ACME Corp., OU=Inner Circle, CN=localhost
        Subject Public Key Info:
            Public Key Algorithm: rsaEncryption
            RSA Public Key: (1024 bit)
                Modulus (1024 bit):
                    00:ab:38:fc:6d:c3:83:97:55:f5:e8:07:84:5c:28:
                    8d:c6:fb:f1:64:55:66:17:40:11:1a:2b:d6:9e:08:
                    8e:58:44:c4:46:b7:5f:71:6b:30:eb:17:a7:be:17:
                    19:9d:9c:82:41:e0:4a:98:48:36:57:3c:c8:46:a3:
                    f1:48:50:74:6e:ff:9e:ba:dc:1e:1d:6a:ba:02:07:
                    1f:48:26:8c:69:d5:ec:ba:69:84:6d:b7:f2:13:8e:
                    ac:00:5a:a8:ba:2a:b0:75:5b:c8:a6:0c:2c:46:e7:
                    03:2e:1a:9e:b2:30:c6:32:95:cf:4e:54:62:1f:b3:
                    23:f7:a3:fc:fa:a8:43:e2:a5
                Exponent: 65537 (0x10001)
    Signature Algorithm: md5WithRSAEncryption
        04:8b:be:97:c2:d3:3f:f0:e4:0f:cd:82:11:ba:0a:7e:35:65:
        1c:02:1d:34:2d:7c:ad:c1:b0:74:c5:f5:b8:95:81:44:38:f2:
        cc:8c:48:4d:21:c3:26:fe:5a:e4:c1:fb:13:19:dc:96:be:14:
        4b:37:9c:7a:c7:88:72:71:99:2a:a9:05:d0:ba:d6:fd:8e:35:
        43:78:4f:ac:19:ee:73:98:8a:e5:0e:20:e9:80:ce:9d:cb:17:
        9c:8a:dc:f9:e0:a6:1b:e4:2a:60:0d:53:0d:9f:01:bd:ec:ef:
        94:16:9f:82:8f:93:43:62:e4:79:58:5a:c0:c4:ab:c3:fd:1a:
        64:44
-----BEGIN CERTIFICATE-----
MIICfjCCAecCAQIwDQYJKoZIhvcNAQEEBQAwga4xEzARBgNVBAoTCkFDTUUgQ29y
cC4xFTATBgNVBAsTDElubmVyIENpcmNsZTEzMDEGCSqGSIb3DQEJARYkY3Byb3Bz
LWdlbmVyYWxAbGlzdHMuc291cmNlZm9yZ2UubmV0MRcwFQYDVQQHEw5IUSwgQUNN
RSBDb3JwLjERMA8GA1UECBMIRGVsYXdhcmUxCzAJBgNVBAYTAlVTMRIwEAYDVQQD
Ewlsb2NhbGhvc3QwHhcNMDYwMzA5MDAzODA1WhcNMDcwMzA5MDAzODA1WjBgMQsw
CQYDVQQGEwJVUzERMA8GA1UECBMIRGVsYXdhcmUxEzARBgNVBAoTCkFDTUUgQ29y
cC4xFTATBgNVBAsTDElubmVyIENpcmNsZTESMBAGA1UEAxMJbG9jYWxob3N0MIGf
MA0GCSqGSIb3DQEBAQUAA4GNADCBiQKBgQCrOPxtw4OXVfXoB4RcKI3G+/FkVWYX
QBEaK9aeCI5YRMRGt19xazDrF6e+FxmdnIJB4EqYSDZXPMhGo/FIUHRu/5663B4d
aroCBx9IJoxp1ey6aYRtt/ITjqwAWqi6KrB1W8imDCxG5wMuGp6yMMYylc9OVGIf
syP3o/z6qEPipQIDAQABMA0GCSqGSIb3DQEBBAUAA4GBAASLvpfC0z/w5A/NghG6
Cn41ZRwCHTQtfK3BsHTF9biVgUQ48syMSE0hwyb+WuTB+xMZ3Ja+FEs3nHrHiHJx
mSqpBdC61v2ONUN4T6wZ7nOYiuUOIOmAzp3LF5yK3PngphvkKmANUw2fAb3s75QW
n4KPk0Ni5HlYWsDEq8P9GmRE
-----END CERTIFICATE-----
